target datalayout = "e-m:e-p270:32:32-p271:32:32-p272:64:64-i64:64-i128:128-f80:128-n8:16:32:64-S128"
target triple = "x86_64-pc-linux-gnu"

%struct.srun_opt_t = type { i16, ptr, ptr, ptr, i8, ptr, i16, i8, ptr, i32, i8, i8, i8, ptr, i8, i8, i8, i32, i32, i32, i8, i32, i32, i32, ptr, i8, i32, i8, i8, ptr, ptr, i32, i8, i8, ptr, ptr, ptr, i8, i32, i8, i32, ptr, ptr, i8, i8, i16, i8, i8 }
%struct.slurm_opt_t = type { ptr, ptr, ptr, ptr, ptr, ptr, ptr, ptr, i32, ptr, ptr, ptr, ptr, i32, i32, ptr, i32, i8, i8, i32, i8, i32, i32, ptr, i8, i32, i32, i64, i32, i32, i32, i32, i32, i32, ptr, i32, ptr, i8, i32, i32, ptr, i32, i32, i32, ptr, ptr, i32, i32, ptr, ptr, ptr, i32, i16, i16, i16, i8, i8, ptr, i8, i16, ptr, ptr, i32, i32, i32, ptr, ptr, ptr, ptr, ptr, ptr, i32, i64, i64, i64, i16, i64, ptr, ptr, ptr, ptr, ptr, ptr, ptr, i8, ptr, ptr, ptr, ptr, i8, i64, ptr, i16, ptr, i32, i32, ptr, ptr, i32, i32, i32, ptr, i32, i32, i32, i32, i32, ptr, i64, i32, i16, i32, ptr, ptr, ptr, ptr, ptr, i16, ptr, ptr, i16, i8, ptr, ptr, ptr, ptr }

@sropt = dso_local global %struct.srun_opt_t zeroinitializer, align 8
@opt_list = dso_local global ptr null, align 8

; Function Attrs: nounwind uwtable
define dso_local i32 @get_max_het_group() #0 {
  %1 = alloca ptr, align 8
  %2 = alloca ptr, align 8
  %3 = alloca i32, align 4
  %4 = alloca i32, align 4
  %5 = alloca ptr, align 8
  call void @llvm.lifetime.start.p0(i64 8, ptr %1) #9
  call void @llvm.lifetime.start.p0(i64 8, ptr %2) #9
  call void @llvm.lifetime.start.p0(i64 4, ptr %3) #9
  store i32 0, ptr %3, align 4
  call void @llvm.lifetime.start.p0(i64 4, ptr %4) #9
  store i32 0, ptr %4, align 4
  %6 = load ptr, ptr @opt_list, align 8
  %7 = icmp ne ptr %6, null
  br i1 %7, label %8, label %38

8:                                                ; preds = %0
  %9 = load ptr, ptr @opt_list, align 8
  %10 = call ptr @list_iterator_create(ptr noundef %9)
  store ptr %10, ptr %1, align 8
  br label %11

11:                                               ; preds = %35, %8
  %12 = load ptr, ptr %1, align 8
  %13 = call ptr @list_next(ptr noundef %12)
  store ptr %13, ptr %2, align 8
  %14 = icmp ne ptr %13, null
  br i1 %14, label %15, label %36

15:                                               ; preds = %11
  call void @llvm.lifetime.start.p0(i64 8, ptr %5) #9
  %16 = load ptr, ptr %2, align 8
  %17 = getelementptr inbounds nuw %struct.slurm_opt_t, ptr %16, i32 0, i32 3
  %18 = load ptr, ptr %17, align 8
  store ptr %18, ptr %5, align 8
  %19 = load ptr, ptr %5, align 8
  %20 = getelementptr inbounds nuw %struct.srun_opt_t, ptr %19, i32 0, i32 30
  %21 = load ptr, ptr %20, align 8
  %22 = icmp ne ptr %21, null
  br i1 %22, label %23, label %29

23:                                               ; preds = %15
  %24 = load ptr, ptr %5, align 8
  %25 = getelementptr inbounds nuw %struct.srun_opt_t, ptr %24, i32 0, i32 30
  %26 = load ptr, ptr %25, align 8
  %27 = call i64 @bit_fls(ptr noundef %26)
  %28 = trunc i64 %27 to i32
  store i32 %28, ptr %4, align 4
  br label %29

29:                                               ; preds = %23, %15
  %30 = load i32, ptr %4, align 4
  %31 = load i32, ptr %3, align 4
  %32 = icmp sge i32 %30, %31
  br i1 %32, label %33, label %35

33:                                               ; preds = %29
  %34 = load i32, ptr %4, align 4
  store i32 %34, ptr %3, align 4
  br label %35

35:                                               ; preds = %33, %29
  call void @llvm.lifetime.end.p0(i64 8, ptr %5) #9
  br label %11, !llvm.loop !14

36:                                               ; preds = %11
  %37 = load ptr, ptr %1, align 8
  call void @list_iterator_destroy(ptr noundef %37)
  br label %46

38:                                               ; preds = %0
  %39 = load ptr, ptr getelementptr inbounds nuw (%struct.srun_opt_t, ptr @sropt, i32 0, i32 30), align 8
  %40 = icmp ne ptr %39, null
  br i1 %40, label %41, label %45

41:                                               ; preds = %38
  %42 = load ptr, ptr getelementptr inbounds nuw (%struct.srun_opt_t, ptr @sropt, i32 0, i32 30), align 8
  %43 = call i64 @bit_fls(ptr noundef %42)
  %44 = trunc i64 %43 to i32
  store i32 %44, ptr %3, align 4
  br label %45

45:                                               ; preds = %41, %38
  br label %46

46:                                               ; preds = %45, %36
  %47 = load i32, ptr %3, align 4
  call void @llvm.lifetime.end.p0(i64 4, ptr %4) #9
  call void @llvm.lifetime.end.p0(i64 4, ptr %3) #9
  call void @llvm.lifetime.end.p0(i64 8, ptr %2) #9
  call void @llvm.lifetime.end.p0(i64 8, ptr %1) #9
  ret i32 %47
}