; Function Attrs: nounwind uwtable
define dso_local i32 @get_max_het_group() local_unnamed_addr #0 {
  %1 = load ptr, ptr @opt_list, align 8
  %.not = icmp eq ptr %1, null
  br i1 %.not, label %15, label %2

2:                                                ; preds = %0
  %3 = tail call ptr @list_iterator_create(ptr noundef nonnull %1) #17
  %4 = tail call ptr @list_next(ptr noundef %3) #17
  %.not1518 = icmp eq ptr %4, null
  br i1 %.not1518, label %._crit_edge, label %.lr.ph

.lr.ph:                                           ; preds = %2, %13
  %5 = phi ptr [ %14, %13 ], [ %4, %2 ]
  %.020 = phi i32 [ %spec.select, %13 ], [ 0, %2 ]
  %.0819 = phi i32 [ %.19, %13 ], [ 0, %2 ]
  %6 = getelementptr inbounds nuw i8, ptr %5, i64 24
  %7 = load ptr, ptr %6, align 8
  %8 = getelementptr inbounds nuw i8, ptr %7, i64 144
  %9 = load ptr, ptr %8, align 8
  %.not16 = icmp eq ptr %9, null
  br i1 %.not16, label %13, label %10

10:                                               ; preds = %.lr.ph
  %11 = tail call i64 @bit_fls(ptr noundef nonnull %9) #17
  %12 = trunc i64 %11 to i32
  br label %13

13:                                               ; preds = %10, %.lr.ph
  %.19 = phi i32 [ %12, %10 ], [ %.0819, %.lr.ph ]
  %spec.select = tail call i32 @llvm.smax.i32(i32 %.19, i32 %.020)
  %14 = tail call ptr @list_next(ptr noundef %3) #17
  %.not15 = icmp eq ptr %14, null
  br i1 %.not15, label %._crit_edge, label %.lr.ph, !llvm.loop !11

._crit_edge:                                      ; preds = %13, %2
  %.0.lcssa = phi i32 [ 0, %2 ], [ %spec.select, %13 ]
  tail call void @list_iterator_destroy(ptr noundef %3) #17
  br label %20

15:                                               ; preds = %0
  %16 = load ptr, ptr getelementptr inbounds nuw (i8, ptr @sropt, i64 144), align 8
  %.not14 = icmp eq ptr %16, null
  br i1 %.not14, label %20, label %17

17:                                               ; preds = %15
  %18 = tail call i64 @bit_fls(ptr noundef nonnull %16) #17
  %19 = trunc i64 %18 to i32
  br label %20

20:                                               ; preds = %15, %17, %._crit_edge
  %.2 = phi i32 [ %.0.lcssa, %._crit_edge ], [ %19, %17 ], [ 0, %15 ]
  ret i32 %.2
}